; ModuleID = '5/1228.c'
source_filename = "5/1228.c"
target datalayout = "e-m:e-p270:32:32-p271:32:32-p272:64:64-i64:64-f80:128-n8:16:32:64-S128"
target triple = "x86_64-pc-linux-gnu"

@.str = private unnamed_addr constant [4 x i8] c"%lf\00", align 1
@.str.1 = private unnamed_addr constant [3 x i8] c"%s\00", align 1
@.str.2 = private unnamed_addr constant [6 x i8] c"error\00", align 1
@.str.3 = private unnamed_addr constant [4 x i8] c"yes\00", align 1
@.str.4 = private unnamed_addr constant [3 x i8] c"no\00", align 1

; Function Attrs: noinline nounwind uwtable
define dso_local i32 @main() #0 {
  %1 = alloca i32, align 4
  %2 = alloca double, align 8
  %3 = alloca double, align 8
  %4 = alloca i32, align 4
  %5 = alloca i32, align 4
  %6 = alloca i32, align 4
  %7 = alloca i32, align 4
  %8 = alloca i32, align 4
  %9 = alloca [2 x [501 x i8]], align 16
  store i32 0, i32* %1, align 4
  store i32 0, i32* %8, align 4
  %10 = call i32 (i8*, ...) @__isoc99_scanf(i8* getelementptr inbounds ([4 x i8], [4 x i8]* @.str, i64 0, i64 0), double* %2)
  store i32 0, i32* %6, align 4
  br label %11

11:                                               ; preds = %20, %0
  %12 = load i32, i32* %6, align 4
  %13 = icmp slt i32 %12, 2
  br i1 %13, label %14, label %23

14:                                               ; preds = %11
  %15 = load i32, i32* %6, align 4
  %16 = sext i32 %15 to i64
  %17 = getelementptr inbounds [2 x [501 x i8]], [2 x [501 x i8]]* %9, i64 0, i64 %16
  %18 = getelementptr inbounds [501 x i8], [501 x i8]* %17, i64 0, i64 0
  %19 = call i32 (i8*, ...) @__isoc99_scanf(i8* getelementptr inbounds ([3 x i8], [3 x i8]* @.str.1, i64 0, i64 0), i8* %18)
  br label %20

20:                                               ; preds = %14
  %21 = load i32, i32* %6, align 4
  %22 = add nsw i32 %21, 1
  store i32 %22, i32* %6, align 4
  br label %11

23:                                               ; preds = %11
  %24 = getelementptr inbounds [2 x [501 x i8]], [2 x [501 x i8]]* %9, i64 0, i64 0
  %25 = getelementptr inbounds [501 x i8], [501 x i8]* %24, i64 0, i64 0
  %26 = call i64 @strlen(i8* %25) #3
  %27 = trunc i64 %26 to i32
  store i32 %27, i32* %4, align 4
  %28 = getelementptr inbounds [2 x [501 x i8]], [2 x [501 x i8]]* %9, i64 0, i64 1
  %29 = getelementptr inbounds [501 x i8], [501 x i8]* %28, i64 0, i64 0
  %30 = call i64 @strlen(i8* %29) #3
  %31 = trunc i64 %30 to i32
  store i32 %31, i32* %5, align 4
  %32 = load i32, i32* %4, align 4
  %33 = load i32, i32* %5, align 4
  %34 = icmp ne i32 %32, %33
  br i1 %34, label %35, label %36

35:                                               ; preds = %23
  store i32 1, i32* %7, align 4
  br label %112

36:                                               ; preds = %23
  store i32 0, i32* %6, align 4
  br label %37

37:                                               ; preds = %108, %36
  %38 = load i32, i32* %6, align 4
  %39 = load i32, i32* %4, align 4
  %40 = icmp slt i32 %38, %39
  br i1 %40, label %41, label %111

41:                                               ; preds = %37
  %42 = getelementptr inbounds [2 x [501 x i8]], [2 x [501 x i8]]* %9, i64 0, i64 0
  %43 = load i32, i32* %6, align 4
  %44 = sext i32 %43 to i64
  %45 = getelementptr inbounds [501 x i8], [501 x i8]* %42, i64 0, i64 %44
  %46 = load i8, i8* %45, align 1
  %47 = sext i8 %46 to i32
  %48 = icmp ne i32 %47, 65
  br i1 %48, label %49, label %73

49:                                               ; preds = %41
  %50 = getelementptr inbounds [2 x [501 x i8]], [2 x [501 x i8]]* %9, i64 0, i64 0
  %51 = load i32, i32* %6, align 4
  %52 = sext i32 %51 to i64
  %53 = getelementptr inbounds [501 x i8], [501 x i8]* %50, i64 0, i64 %52
  %54 = load i8, i8* %53, align 1
  %55 = sext i8 %54 to i32
  %56 = icmp ne i32 %55, 84
  br i1 %56, label %57, label %73

57:                                               ; preds = %49
  %58 = getelementptr inbounds [2 x [501 x i8]], [2 x [501 x i8]]* %9, i64 0, i64 0
  %59 = load i32, i32* %6, align 4
  %60 = sext i32 %59 to i64
  %61 = getelementptr inbounds [501 x i8], [501 x i8]* %58, i64 0, i64 %60
  %62 = load i8, i8* %61, align 1
  %63 = sext i8 %62 to i32
  %64 = icmp ne i32 %63, 71
  br i1 %64, label %65, label %73

65:                                               ; preds = %57
  %66 = getelementptr inbounds [2 x [501 x i8]], [2 x [501 x i8]]* %9, i64 0, i64 0
  %67 = load i32, i32* %6, align 4
  %68 = sext i32 %67 to i64
  %69 = getelementptr inbounds [501 x i8], [501 x i8]* %66, i64 0, i64 %68
  %70 = load i8, i8* %69, align 1
  %71 = sext i8 %70 to i32
  %72 = icmp ne i32 %71, 67
  br i1 %72, label %105, label %73

73:                                               ; preds = %65, %57, %49, %41
  %74 = getelementptr inbounds [2 x [501 x i8]], [2 x [501 x i8]]* %9, i64 0, i64 1
  %75 = load i32, i32* %6, align 4
  %76 = sext i32 %75 to i64
  %77 = getelementptr inbounds [501 x i8], [501 x i8]* %74, i64 0, i64 %76
  %78 = load i8, i8* %77, align 1
  %79 = sext i8 %78 to i32
  %80 = icmp ne i32 %79, 65
  br i1 %80, label %81, label %106

81:                                               ; preds = %73
  %82 = getelementptr inbounds [2 x [501 x i8]], [2 x [501 x i8]]* %9, i64 0, i64 1
  %83 = load i32, i32* %6, align 4
  %84 = sext i32 %83 to i64
  %85 = getelementptr inbounds [501 x i8], [501 x i8]* %82, i64 0, i64 %84
  %86 = load i8, i8* %85, align 1
  %87 = sext i8 %86 to i32
  %88 = icmp ne i32 %87, 84
  br i1 %88, label %89, label %106

89:                                               ; preds = %81
  %90 = getelementptr inbounds [2 x [501 x i8]], [2 x [501 x i8]]* %9, i64 0, i64 1
  %91 = load i32, i32* %6, align 4
  %92 = sext i32 %91 to i64
  %93 = getelementptr inbounds [501 x i8], [501 x i8]* %90, i64 0, i64 %92
  %94 = load i8, i8* %93, align 1
  %95 = sext i8 %94 to i32
  %96 = icmp ne i32 %95, 71
  br i1 %96, label %97, label %106

97:                                               ; preds = %89
  %98 = getelementptr inbounds [2 x [501 x i8]], [2 x [501 x i8]]* %9, i64 0, i64 1
  %99 = load i32, i32* %6, align 4
  %100 = sext i32 %99 to i64
  %101 = getelementptr inbounds [501 x i8], [501 x i8]* %98, i64 0, i64 %100
  %102 = load i8, i8* %101, align 1
  %103 = sext i8 %102 to i32
  %104 = icmp ne i32 %103, 67
  br i1 %104, label %105, label %106

105:                                              ; preds = %97, %65
  store i32 1, i32* %7, align 4
  br label %107

106:                                              ; preds = %97, %89, %81, %73
  store i32 0, i32* %7, align 4
  br label %107

107:                                              ; preds = %106, %105
  br label %108

108:                                              ; preds = %107
  %109 = load i32, i32* %6, align 4
  %110 = add nsw i32 %109, 1
  store i32 %110, i32* %6, align 4
  br label %37

111:                                              ; preds = %37
  br label %112

112:                                              ; preds = %111, %35
  %113 = load i32, i32* %7, align 4
  %114 = icmp eq i32 %113, 1
  br i1 %114, label %115, label %117

115:                                              ; preds = %112
  %116 = call i32 (i8*, ...) @printf(i8* getelementptr inbounds ([6 x i8], [6 x i8]* @.str.2, i64 0, i64 0))
  br label %164

117:                                              ; preds = %112
  %118 = load i32, i32* %7, align 4
  %119 = icmp eq i32 %118, 0
  br i1 %119, label %120, label %163

120:                                              ; preds = %117
  store i32 0, i32* %6, align 4
  br label %121

121:                                              ; preds = %145, %120
  %122 = load i32, i32* %6, align 4
  %123 = load i32, i32* %4, align 4
  %124 = icmp slt i32 %122, %123
  br i1 %124, label %125, label %148

125:                                              ; preds = %121
  %126 = getelementptr inbounds [2 x [501 x i8]], [2 x [501 x i8]]* %9, i64 0, i64 0
  %127 = load i32, i32* %6, align 4
  %128 = sext i32 %127 to i64
  %129 = getelementptr inbounds [501 x i8], [501 x i8]* %126, i64 0, i64 %128
  %130 = load i8, i8* %129, align 1
  %131 = sext i8 %130 to i32
  %132 = getelementptr inbounds [2 x [501 x i8]], [2 x [501 x i8]]* %9, i64 0, i64 1
  %133 = load i32, i32* %6, align 4
  %134 = sext i32 %133 to i64
  %135 = getelementptr inbounds [501 x i8], [501 x i8]* %132, i64 0, i64 %134
  %136 = load i8, i8* %135, align 1
  %137 = sext i8 %136 to i32
  %138 = icmp eq i32 %131, %137
  br i1 %138, label %139, label %142

139:                                              ; preds = %125
  %140 = load i32, i32* %8, align 4
  %141 = add nsw i32 %140, 1
  store i32 %141, i32* %8, align 4
  br label %144

142:                                              ; preds = %125
  %143 = load i32, i32* %8, align 4
  store i32 %143, i32* %8, align 4
  br label %144

144:                                              ; preds = %142, %139
  br label %145

145:                                              ; preds = %144
  %146 = load i32, i32* %6, align 4
  %147 = add nsw i32 %146, 1
  store i32 %147, i32* %6, align 4
  br label %121

148:                                              ; preds = %121
  %149 = load i32, i32* %8, align 4
  %150 = sitofp i32 %149 to double
  %151 = fmul double %150, 1.000000e+00
  %152 = load i32, i32* %4, align 4
  %153 = sitofp i32 %152 to double
  %154 = fdiv double %151, %153
  store double %154, double* %3, align 8
  %155 = load double, double* %3, align 8
  %156 = load double, double* %2, align 8
  %157 = fcmp ogt double %155, %156
  br i1 %157, label %158, label %160

158:                                              ; preds = %148
  %159 = call i32 (i8*, ...) @printf(i8* getelementptr inbounds ([4 x i8], [4 x i8]* @.str.3, i64 0, i64 0))
  br label %162

160:                                              ; preds = %148
  %161 = call i32 (i8*, ...) @printf(i8* getelementptr inbounds ([3 x i8], [3 x i8]* @.str.4, i64 0, i64 0))
  br label %162

162:                                              ; preds = %160, %158
  br label %163

163:                                              ; preds = %162, %117
  br label %164

164:                                              ; preds = %163, %115
  ret i32 0
}

declare dso_local i32 @__isoc99_scanf(i8*, ...) #1

; Function Attrs: nounwind readonly
declare dso_local i64 @strlen(i8*) #2

declare dso_local i32 @printf(i8*, ...) #1


!llvm.module.flags = !{!0}
!llvm.ident = !{!1}

!0 = !{i32 1, !"wchar_size", i32 4}
!1 = !{!"clang version 10.0.0-4ubuntu1 "}
